; Function Attrs: nounwind uwtable
define dso_local ptr @strip_path_suffix(ptr noundef %0, ptr noundef readonly captures(none) %1) local_unnamed_addr #3 {
  %3 = tail call fastcc i64 @stripped_path_suffix_offset(ptr noundef %0, ptr noundef %1)
  %4 = icmp eq i64 %3, -1
  br i1 %4, label %7, label %5

5:                                                ; preds = %2
  %6 = tail call ptr @xstrndup(ptr noundef %0, i64 noundef %3) #29
  br label %7

7:                                                ; preds = %2, %5
  %8 = phi ptr [ %6, %5 ], [ null, %2 ]
  ret ptr %8
}